target datalayout = "e-m:e-p270:32:32-p271:32:32-p272:64:64-i64:64-i128:128-f80:128-n8:16:32:64-S128"
target triple = "x86_64-pc-linux-gnu"

%struct.FxuDataStruct = type { i32, i32, i32, i32, i32, i32, i32, i32, i32, i32, i32, i32, ptr, ptr, ptr, ptr, ptr, i32, i32 }

; Function Attrs: nounwind uwtable
define void @Gia_ManTranStochFx(ptr noundef %0) #0 {
  %2 = alloca ptr, align 8
  %3 = alloca %struct.FxuDataStruct, align 8
  %4 = alloca ptr, align 8
  store ptr %0, ptr %2, align 8, !tbaa !10
  call void @llvm.lifetime.start.p0(i64 96, ptr %3) #10
  call void @llvm.lifetime.start.p0(i64 8, ptr %4) #10
  store ptr %3, ptr %4, align 8, !tbaa !26
  %5 = load ptr, ptr %4, align 8, !tbaa !26
  call void @Abc_NtkSetDefaultFxParams(ptr noundef %5)
  %6 = load ptr, ptr %2, align 8, !tbaa !10
  %7 = load ptr, ptr %4, align 8, !tbaa !26
  %8 = getelementptr inbounds nuw %struct.FxuDataStruct, ptr %7, i32 0, i32 6
  %9 = load i32, ptr %8, align 8, !tbaa !28
  %10 = load ptr, ptr %4, align 8, !tbaa !26
  %11 = getelementptr inbounds nuw %struct.FxuDataStruct, ptr %10, i32 0, i32 10
  %12 = load i32, ptr %11, align 8, !tbaa !32
  %13 = load ptr, ptr %4, align 8, !tbaa !26
  %14 = getelementptr inbounds nuw %struct.FxuDataStruct, ptr %13, i32 0, i32 11
  %15 = load i32, ptr %14, align 4, !tbaa !33
  %16 = load ptr, ptr %4, align 8, !tbaa !26
  %17 = getelementptr inbounds nuw %struct.FxuDataStruct, ptr %16, i32 0, i32 4
  %18 = load i32, ptr %17, align 8, !tbaa !34
  %19 = load ptr, ptr %4, align 8, !tbaa !26
  %20 = getelementptr inbounds nuw %struct.FxuDataStruct, ptr %19, i32 0, i32 5
  %21 = load i32, ptr %20, align 4, !tbaa !35
  %22 = call i32 @Abc_NtkFxPerform(ptr noundef %6, i32 noundef %9, i32 noundef %12, i32 noundef %15, i32 noundef %18, i32 noundef %21)
  %23 = load ptr, ptr %4, align 8, !tbaa !26
  call void @Abc_NtkFxuFreeInfo(ptr noundef %23)
  call void @llvm.lifetime.end.p0(i64 8, ptr %4) #10
  call void @llvm.lifetime.end.p0(i64 96, ptr %3) #10
  ret void
}