; Function Attrs: nounwind uwtable
define void @Gia_ManTranStochFx(ptr noundef %0) local_unnamed_addr #0 {
  %2 = alloca %struct.FxuDataStruct, align 8
  call void @llvm.lifetime.start.p0(i64 96, ptr nonnull %2) #14
  call void @Abc_NtkSetDefaultFxParams(ptr noundef nonnull %2) #14
  %3 = getelementptr inbounds nuw i8, ptr %2, i64 24
  %4 = load i32, ptr %3, align 8, !tbaa !16
  %5 = getelementptr inbounds nuw i8, ptr %2, i64 40
  %6 = load i32, ptr %5, align 8, !tbaa !20
  %7 = getelementptr inbounds nuw i8, ptr %2, i64 44
  %8 = load i32, ptr %7, align 4, !tbaa !21
  %9 = getelementptr inbounds nuw i8, ptr %2, i64 16
  %10 = load i32, ptr %9, align 8, !tbaa !22
  %11 = getelementptr inbounds nuw i8, ptr %2, i64 20
  %12 = load i32, ptr %11, align 4, !tbaa !23
  %13 = call i32 @Abc_NtkFxPerform(ptr noundef %0, i32 noundef %4, i32 noundef %6, i32 noundef %8, i32 noundef %10, i32 noundef %12) #14
  call void @Abc_NtkFxuFreeInfo(ptr noundef nonnull %2) #14
  call void @llvm.lifetime.end.p0(i64 96, ptr nonnull %2) #14
  ret void
}